; Function Attrs: mustprogress uwtable
define void @_ZN8proxygen15HTTPSessionBase14onCodecChangedEv(ptr noundef nonnull align 8 dereferenceable(1582) %this) local_unnamed_addr #3 align 2 {
entry:
  %controller_ = getelementptr inbounds i8, ptr %this, i64 1512
  %0 = load ptr, ptr %controller_, align 8
  %tobool.not = icmp eq ptr %0, null
  br i1 %tobool.not, label %_ZN8proxygen15HTTPSessionBase31initCodecHeaderIndexingStrategyEv.exit, label %if.end

if.end:                                           ; preds = %entry
  %vtable = load ptr, ptr %0, align 8
  %vfn = getelementptr inbounds i8, ptr %vtable, i64 56
  %1 = load ptr, ptr %vfn, align 8
  tail call void %1(ptr noundef nonnull align 8 dereferenceable(8) %0, ptr noundef nonnull %this)
  %.pr = load ptr, ptr %controller_, align 8
  %tobool.not.i = icmp eq ptr %.pr, null
  br i1 %tobool.not.i, label %_ZN8proxygen15HTTPSessionBase31initCodecHeaderIndexingStrategyEv.exit, label %if.then.i

if.then.i:                                        ; preds = %if.end
  %vtable.i = load ptr, ptr %.pr, align 8
  %vfn.i = getelementptr inbounds i8, ptr %vtable.i, i64 88
  %2 = load ptr, ptr %vfn.i, align 8
  %call.i = tail call noundef ptr %2(ptr noundef nonnull align 8 dereferenceable(8) %.pr)
  %vtable3.i = load ptr, ptr %this, align 8
  %vfn4.i = getelementptr inbounds i8, ptr %vtable3.i, i64 136
  %3 = load ptr, ptr %vfn4.i, align 8
  tail call void %3(ptr noundef nonnull align 8 dereferenceable(1582) %this, ptr noundef %call.i)
  br label %_ZN8proxygen15HTTPSessionBase31initCodecHeaderIndexingStrategyEv.exit

_ZN8proxygen15HTTPSessionBase31initCodecHeaderIndexingStrategyEv.exit: ; preds = %entry, %if.end, %if.then.i
  ret void
}